target datalayout = "e-m:e-p270:32:32-p271:32:32-p272:64:64-i64:64-i128:128-f80:128-n8:16:32:64-S128"
target triple = "x86_64-pc-linux-gnu"

%"class.llvm::SmallVectorBase" = type { ptr, i32, i32 }
%"struct.(anonymous namespace)::DecompEntry" = type <{ i64, ptr, i8, [7 x i8] }>
%"class.std::move_iterator.486" = type { ptr }

; Function Attrs: mustprogress nounwind uwtable
define internal noundef zeroext i1 @_ZSteqIPN12_GLOBAL__N_111DecompEntryEEbRKSt13move_iteratorIT_ES7_(ptr noundef nonnull align 8 dereferenceable(8) %0, ptr noundef nonnull align 8 dereferenceable(8) %1) #1 {
  %3 = alloca ptr, align 8
  %4 = alloca ptr, align 8
  store ptr %0, ptr %3, align 8
  store ptr %1, ptr %4, align 8
  %5 = load ptr, ptr %3, align 8
  %6 = call noundef ptr @_ZNKSt13move_iteratorIPN12_GLOBAL__N_111DecompEntryEE4baseEv(ptr noundef nonnull align 8 dereferenceable(8) %5)
  %7 = load ptr, ptr %4, align 8
  %8 = call noundef ptr @_ZNKSt13move_iteratorIPN12_GLOBAL__N_111DecompEntryEE4baseEv(ptr noundef nonnull align 8 dereferenceable(8) %7)
  %9 = icmp eq ptr %6, %8
  ret i1 %9
}

; Function Attrs: mustprogress nounwind uwtable
define internal noundef nonnull align 8 dereferenceable(8) ptr @_ZNSt13move_iteratorIPN12_GLOBAL__N_111DecompEntryEEppEv(ptr noundef nonnull align 8 dereferenceable(8) %0) #1 align 2 {
  %2 = alloca ptr, align 8
  store ptr %0, ptr %2, align 8
  %3 = load ptr, ptr %2, align 8
  %4 = getelementptr inbounds nuw %"class.std::move_iterator.486", ptr %3, i32 0, i32 0
  %5 = load ptr, ptr %4, align 8
  %6 = getelementptr inbounds %"struct.(anonymous namespace)::DecompEntry", ptr %5, i32 1
  store ptr %6, ptr %4, align 8
  ret ptr %3
}

; Function Attrs: mustprogress nounwind uwtable
define internal void @_ZSt10_ConstructIN12_GLOBAL__N_111DecompEntryEJS1_EEvPT_DpOT0_(ptr noundef %0, ptr noundef nonnull align 8 dereferenceable(17) %1) #1 {
  %3 = alloca ptr, align 8
  %4 = alloca ptr, align 8
  store ptr %0, ptr %3, align 8
  store ptr %1, ptr %4, align 8
  %5 = load ptr, ptr %3, align 8
  %6 = load ptr, ptr %4, align 8
  call void @llvm.memcpy.p0.p0.i64(ptr align 8 %5, ptr align 8 %6, i64 24, i1 false)
  ret void
}

; Function Attrs: mustprogress nounwind uwtable
define internal noundef nonnull align 8 dereferenceable(17) ptr @_ZNKSt13move_iteratorIPN12_GLOBAL__N_111DecompEntryEEdeEv(ptr noundef nonnull align 8 dereferenceable(8) %0) #1 align 2 {
  %2 = alloca ptr, align 8
  store ptr %0, ptr %2, align 8
  %3 = load ptr, ptr %2, align 8
  %4 = getelementptr inbounds nuw %"class.std::move_iterator.486", ptr %3, i32 0, i32 0
  %5 = load ptr, ptr %4, align 8
  ret ptr %5
}

; Function Attrs: mustprogress nounwind uwtable
define internal noundef zeroext i1 @_ZStneIPN12_GLOBAL__N_111DecompEntryEEbRKSt13move_iteratorIT_ES7_(ptr noundef nonnull align 8 dereferenceable(8) %0, ptr noundef nonnull align 8 dereferenceable(8) %1) #1 {
  %3 = alloca ptr, align 8
  %4 = alloca ptr, align 8
  store ptr %0, ptr %3, align 8
  store ptr %1, ptr %4, align 8
  %5 = load ptr, ptr %3, align 8
  %6 = load ptr, ptr %4, align 8
  %7 = call noundef zeroext i1 @_ZSteqIPN12_GLOBAL__N_111DecompEntryEEbRKSt13move_iteratorIT_ES7_(ptr noundef nonnull align 8 dereferenceable(8) %5, ptr noundef nonnull align 8 dereferenceable(8) %6)
  %8 = xor i1 %7, true
  ret i1 %8
}

; Function Attrs: mustprogress nounwind uwtable
define internal noundef ptr @_ZSt16__do_uninit_copyISt13move_iteratorIPN12_GLOBAL__N_111DecompEntryEES3_ET0_T_S6_S5_(ptr %0, ptr %1, ptr noundef %2) #1 {
  %4 = alloca %"class.std::move_iterator.486", align 8
  %5 = alloca %"class.std::move_iterator.486", align 8
  %6 = alloca ptr, align 8
  %7 = alloca ptr, align 8
  %8 = getelementptr inbounds nuw %"class.std::move_iterator.486", ptr %4, i32 0, i32 0
  store ptr %0, ptr %8, align 8
  %9 = getelementptr inbounds nuw %"class.std::move_iterator.486", ptr %5, i32 0, i32 0
  store ptr %1, ptr %9, align 8
  store ptr %2, ptr %6, align 8
  %10 = load ptr, ptr %6, align 8
  store ptr %10, ptr %7, align 8
  br label %11

11:                                               ; preds = %16, %3
  %12 = call noundef zeroext i1 @_ZStneIPN12_GLOBAL__N_111DecompEntryEEbRKSt13move_iteratorIT_ES7_(ptr noundef nonnull align 8 dereferenceable(8) %4, ptr noundef nonnull align 8 dereferenceable(8) %5)
  br i1 %12, label %13, label %20

13:                                               ; preds = %11
  %14 = load ptr, ptr %7, align 8
  %15 = call noundef nonnull align 8 dereferenceable(17) ptr @_ZNKSt13move_iteratorIPN12_GLOBAL__N_111DecompEntryEEdeEv(ptr noundef nonnull align 8 dereferenceable(8) %4)
  call void @_ZSt10_ConstructIN12_GLOBAL__N_111DecompEntryEJS1_EEvPT_DpOT0_(ptr noundef %14, ptr noundef nonnull align 8 dereferenceable(17) %15)
  br label %16

16:                                               ; preds = %13
  %17 = call noundef nonnull align 8 dereferenceable(8) ptr @_ZNSt13move_iteratorIPN12_GLOBAL__N_111DecompEntryEEppEv(ptr noundef nonnull align 8 dereferenceable(8) %4)
  %18 = load ptr, ptr %7, align 8
  %19 = getelementptr inbounds %"struct.(anonymous namespace)::DecompEntry", ptr %18, i32 1
  store ptr %19, ptr %7, align 8
  br label %11, !llvm.loop !55

20:                                               ; preds = %11
  %21 = load ptr, ptr %7, align 8
  ret ptr %21
}

; Function Attrs: mustprogress nounwind uwtable
define internal noundef ptr @_ZNK4llvm25SmallVectorTemplateCommonIN12_GLOBAL__N_111DecompEntryEvE10getFirstElEv(ptr noundef nonnull align 8 dereferenceable(16) %0) #1 align 2 {
  %2 = alloca ptr, align 8
  store ptr %0, ptr %2, align 8
  %3 = load ptr, ptr %2, align 8
  %4 = getelementptr inbounds i8, ptr %3, i64 16
  ret ptr %4
}

; Function Attrs: mustprogress nounwind uwtable
define internal noundef ptr @_ZNKSt13move_iteratorIPN12_GLOBAL__N_111DecompEntryEE4baseEv(ptr noundef nonnull align 8 dereferenceable(8) %0) #1 align 2 {
  %2 = alloca ptr, align 8
  store ptr %0, ptr %2, align 8
  %3 = load ptr, ptr %2, align 8
  %4 = getelementptr inbounds nuw %"class.std::move_iterator.486", ptr %3, i32 0, i32 0
  %5 = load ptr, ptr %4, align 8
  ret ptr %5
}

; Function Attrs: mustprogress nounwind uwtable
define internal noundef ptr @_ZNSt20__uninitialized_copyILb0EE13__uninit_copyISt13move_iteratorIPN12_GLOBAL__N_111DecompEntryEES5_EET0_T_S8_S7_(ptr %0, ptr %1, ptr noundef %2) #1 align 2 {
  %4 = alloca %"class.std::move_iterator.486", align 8
  %5 = alloca %"class.std::move_iterator.486", align 8
  %6 = alloca ptr, align 8
  %7 = alloca %"class.std::move_iterator.486", align 8
  %8 = alloca %"class.std::move_iterator.486", align 8
  %9 = getelementptr inbounds nuw %"class.std::move_iterator.486", ptr %4, i32 0, i32 0
  store ptr %0, ptr %9, align 8
  %10 = getelementptr inbounds nuw %"class.std::move_iterator.486", ptr %5, i32 0, i32 0
  store ptr %1, ptr %10, align 8
  store ptr %2, ptr %6, align 8
  call void @llvm.memcpy.p0.p0.i64(ptr align 8 %7, ptr align 8 %4, i64 8, i1 false)
  call void @llvm.memcpy.p0.p0.i64(ptr align 8 %8, ptr align 8 %5, i64 8, i1 false)
  %11 = load ptr, ptr %6, align 8
  %12 = getelementptr inbounds nuw %"class.std::move_iterator.486", ptr %7, i32 0, i32 0
  %13 = load ptr, ptr %12, align 8
  %14 = getelementptr inbounds nuw %"class.std::move_iterator.486", ptr %8, i32 0, i32 0
  %15 = load ptr, ptr %14, align 8
  %16 = call noundef ptr @_ZSt16__do_uninit_copyISt13move_iteratorIPN12_GLOBAL__N_111DecompEntryEES3_ET0_T_S6_S5_(ptr %13, ptr %15, ptr noundef %11)
  ret ptr %16
}

; Function Attrs: mustprogress nounwind uwtable
define internal void @_ZN4llvm25SmallVectorTemplateCommonIN12_GLOBAL__N_111DecompEntryEvE8grow_podEmm(ptr noundef nonnull align 8 dereferenceable(16) %0, i64 noundef %1, i64 noundef %2) #1 align 2 {
  %4 = alloca ptr, align 8
  %5 = alloca i64, align 8
  %6 = alloca i64, align 8
  store ptr %0, ptr %4, align 8
  store i64 %1, ptr %5, align 8
  store i64 %2, ptr %6, align 8
  %7 = load ptr, ptr %4, align 8
  %8 = call noundef ptr @_ZNK4llvm25SmallVectorTemplateCommonIN12_GLOBAL__N_111DecompEntryEvE10getFirstElEv(ptr noundef nonnull align 8 dereferenceable(16) %7)
  %9 = load i64, ptr %5, align 8
  %10 = load i64, ptr %6, align 8
  call void @_ZN4llvm15SmallVectorBaseIjE8grow_podEPvmm(ptr noundef nonnull align 8 dereferenceable(16) %7, ptr noundef %8, i64 noundef %9, i64 noundef %10)
  ret void
}

; Function Attrs: mustprogress nounwind uwtable
define internal noundef i64 @_ZStmiIPN12_GLOBAL__N_111DecompEntryES2_EDTmicldtfp_4baseEcldtfp0_4baseEERKSt13move_iteratorIT_ERKS4_IT0_E(ptr noundef nonnull align 8 dereferenceable(8) %0, ptr noundef nonnull align 8 dereferenceable(8) %1) #1 {
  %3 = alloca ptr, align 8
  %4 = alloca ptr, align 8
  store ptr %0, ptr %3, align 8
  store ptr %1, ptr %4, align 8
  %5 = load ptr, ptr %3, align 8
  %6 = call noundef ptr @_ZNKSt13move_iteratorIPN12_GLOBAL__N_111DecompEntryEE4baseEv(ptr noundef nonnull align 8 dereferenceable(8) %5)
  %7 = load ptr, ptr %4, align 8
  %8 = call noundef ptr @_ZNKSt13move_iteratorIPN12_GLOBAL__N_111DecompEntryEE4baseEv(ptr noundef nonnull align 8 dereferenceable(8) %7)
  %9 = ptrtoint ptr %6 to i64
  %10 = ptrtoint ptr %8 to i64
  %11 = sub i64 %9, %10
  %12 = sdiv exact i64 %11, 24
  ret i64 %12
}

; Function Attrs: mustprogress nounwind uwtable
define internal noundef ptr @_ZSt18uninitialized_copyISt13move_iteratorIPN12_GLOBAL__N_111DecompEntryEES3_ET0_T_S6_S5_(ptr %0, ptr %1, ptr noundef %2) #1 {
  %4 = alloca %"class.std::move_iterator.486", align 8
  %5 = alloca %"class.std::move_iterator.486", align 8
  %6 = alloca ptr, align 8
  %7 = alloca i8, align 1
  %8 = alloca i8, align 1
  %9 = alloca %"class.std::move_iterator.486", align 8
  %10 = alloca %"class.std::move_iterator.486", align 8
  %11 = getelementptr inbounds nuw %"class.std::move_iterator.486", ptr %4, i32 0, i32 0
  store ptr %0, ptr %11, align 8
  %12 = getelementptr inbounds nuw %"class.std::move_iterator.486", ptr %5, i32 0, i32 0
  store ptr %1, ptr %12, align 8
  store ptr %2, ptr %6, align 8
  store i8 0, ptr %7, align 1
  store i8 0, ptr %8, align 1
  call void @llvm.memcpy.p0.p0.i64(ptr align 8 %9, ptr align 8 %4, i64 8, i1 false)
  call void @llvm.memcpy.p0.p0.i64(ptr align 8 %10, ptr align 8 %5, i64 8, i1 false)
  %13 = load ptr, ptr %6, align 8
  %14 = getelementptr inbounds nuw %"class.std::move_iterator.486", ptr %9, i32 0, i32 0
  %15 = load ptr, ptr %14, align 8
  %16 = getelementptr inbounds nuw %"class.std::move_iterator.486", ptr %10, i32 0, i32 0
  %17 = load ptr, ptr %16, align 8
  %18 = call noundef ptr @_ZNSt20__uninitialized_copyILb0EE13__uninit_copyISt13move_iteratorIPN12_GLOBAL__N_111DecompEntryEES5_EET0_T_S8_S7_(ptr %15, ptr %17, ptr noundef %13)
  ret ptr %18
}

; Function Attrs: mustprogress nounwind uwtable
define internal noundef ptr @_ZN4llvm25SmallVectorTemplateCommonIN12_GLOBAL__N_111DecompEntryEvE5beginEv(ptr noundef nonnull align 8 dereferenceable(16) %0) #1 align 2 {
  %2 = alloca ptr, align 8
  store ptr %0, ptr %2, align 8
  %3 = load ptr, ptr %2, align 8
  %4 = getelementptr inbounds nuw %"class.llvm::SmallVectorBase", ptr %3, i32 0, i32 0
  %5 = load ptr, ptr %4, align 8
  ret ptr %5
}

; Function Attrs: mustprogress nounwind uwtable
define internal void @_ZN4llvm23SmallVectorTemplateBaseIN12_GLOBAL__N_111DecompEntryELb1EE4growEm(ptr noundef nonnull align 8 dereferenceable(16) %0, i64 noundef %1) #1 align 2 {
  %3 = alloca ptr, align 8
  %4 = alloca i64, align 8
  store ptr %0, ptr %3, align 8
  store i64 %1, ptr %4, align 8
  %5 = load ptr, ptr %3, align 8
  %6 = load i64, ptr %4, align 8
  call void @_ZN4llvm25SmallVectorTemplateCommonIN12_GLOBAL__N_111DecompEntryEvE8grow_podEmm(ptr noundef nonnull align 8 dereferenceable(16) %5, i64 noundef %6, i64 noundef 24)
  ret void
}

; Function Attrs: mustprogress nounwind uwtable
define internal noundef i64 @_ZSt10__distanceISt13move_iteratorIPN12_GLOBAL__N_111DecompEntryEEENSt15iterator_traitsIT_E15difference_typeES6_S6_St26random_access_iterator_tag(ptr %0, ptr %1) #1 {
  %3 = alloca %"class.std::move_iterator.486", align 8
  %4 = alloca %"class.std::move_iterator.486", align 8
  %5 = getelementptr inbounds nuw %"class.std::move_iterator.486", ptr %3, i32 0, i32 0
  store ptr %0, ptr %5, align 8
  %6 = getelementptr inbounds nuw %"class.std::move_iterator.486", ptr %4, i32 0, i32 0
  store ptr %1, ptr %6, align 8
  %7 = call noundef i64 @_ZStmiIPN12_GLOBAL__N_111DecompEntryES2_EDTmicldtfp_4baseEcldtfp0_4baseEERKSt13move_iteratorIT_ERKS4_IT0_E(ptr noundef nonnull align 8 dereferenceable(8) %4, ptr noundef nonnull align 8 dereferenceable(8) %3)
  ret i64 %7
}

; Function Attrs: mustprogress nounwind uwtable
define internal void @_ZSt19__iterator_categoryISt13move_iteratorIPN12_GLOBAL__N_111DecompEntryEEENSt15iterator_traitsIT_E17iterator_categoryERKS6_(ptr noundef nonnull align 8 dereferenceable(8) %0) #1 {
  %2 = alloca ptr, align 8
  store ptr %0, ptr %2, align 8
  ret void
}

; Function Attrs: mustprogress nounwind uwtable
define internal void @_ZN4llvm23SmallVectorTemplateBaseIN12_GLOBAL__N_111DecompEntryELb1EE18uninitialized_copyISt13move_iteratorIPS2_ES6_EEvT_S8_T0_(ptr %0, ptr %1, ptr noundef %2) #1 align 2 {
  %4 = alloca %"class.std::move_iterator.486", align 8
  %5 = alloca %"class.std::move_iterator.486", align 8
  %6 = alloca ptr, align 8
  %7 = alloca %"class.std::move_iterator.486", align 8
  %8 = alloca %"class.std::move_iterator.486", align 8
  %9 = getelementptr inbounds nuw %"class.std::move_iterator.486", ptr %4, i32 0, i32 0
  store ptr %0, ptr %9, align 8
  %10 = getelementptr inbounds nuw %"class.std::move_iterator.486", ptr %5, i32 0, i32 0
  store ptr %1, ptr %10, align 8
  store ptr %2, ptr %6, align 8
  call void @llvm.memcpy.p0.p0.i64(ptr align 8 %7, ptr align 8 %4, i64 8, i1 false)
  call void @llvm.memcpy.p0.p0.i64(ptr align 8 %8, ptr align 8 %5, i64 8, i1 false)
  %11 = load ptr, ptr %6, align 8
  %12 = getelementptr inbounds nuw %"class.std::move_iterator.486", ptr %7, i32 0, i32 0
  %13 = load ptr, ptr %12, align 8
  %14 = getelementptr inbounds nuw %"class.std::move_iterator.486", ptr %8, i32 0, i32 0
  %15 = load ptr, ptr %14, align 8
  %16 = call noundef ptr @_ZSt18uninitialized_copyISt13move_iteratorIPN12_GLOBAL__N_111DecompEntryEES3_ET0_T_S6_S5_(ptr %13, ptr %15, ptr noundef %11)
  ret void
}

; Function Attrs: mustprogress nounwind uwtable
define internal noundef ptr @_ZN4llvm25SmallVectorTemplateCommonIN12_GLOBAL__N_111DecompEntryEvE3endEv(ptr noundef nonnull align 8 dereferenceable(16) %0) #1 align 2 {
  %2 = alloca ptr, align 8
  store ptr %0, ptr %2, align 8
  %3 = load ptr, ptr %2, align 8
  %4 = call noundef ptr @_ZN4llvm25SmallVectorTemplateCommonIN12_GLOBAL__N_111DecompEntryEvE5beginEv(ptr noundef nonnull align 8 dereferenceable(16) %3)
  %5 = call noundef i64 @_ZNK4llvm15SmallVectorBaseIjE4sizeEv(ptr noundef nonnull align 8 dereferenceable(16) %3)
  %6 = getelementptr inbounds %"struct.(anonymous namespace)::DecompEntry", ptr %4, i64 %5
  ret ptr %6
}

; Function Attrs: mustprogress nounwind uwtable
define internal void @_ZN4llvm15SmallVectorImplIN12_GLOBAL__N_111DecompEntryEE7reserveEm(ptr noundef nonnull align 8 dereferenceable(16) %0, i64 noundef %1) #1 align 2 {
  %3 = alloca ptr, align 8
  %4 = alloca i64, align 8
  store ptr %0, ptr %3, align 8
  store i64 %1, ptr %4, align 8
  %5 = load ptr, ptr %3, align 8
  %6 = call noundef i64 @_ZNK4llvm15SmallVectorBaseIjE8capacityEv(ptr noundef nonnull align 8 dereferenceable(16) %5)
  %7 = load i64, ptr %4, align 8
  %8 = icmp ult i64 %6, %7
  br i1 %8, label %9, label %11

9:                                                ; preds = %2
  %10 = load i64, ptr %4, align 8
  call void @_ZN4llvm23SmallVectorTemplateBaseIN12_GLOBAL__N_111DecompEntryELb1EE4growEm(ptr noundef nonnull align 8 dereferenceable(16) %5, i64 noundef %10)
  br label %11

11:                                               ; preds = %9, %2
  ret void
}

; Function Attrs: mustprogress nounwind uwtable
define internal noundef i64 @_ZSt8distanceISt13move_iteratorIPN12_GLOBAL__N_111DecompEntryEEENSt15iterator_traitsIT_E15difference_typeES6_S6_(ptr %0, ptr %1) #1 {
  %3 = alloca %"class.std::move_iterator.486", align 8
  %4 = alloca %"class.std::move_iterator.486", align 8
  %5 = alloca %"class.std::move_iterator.486", align 8
  %6 = alloca %"class.std::move_iterator.486", align 8
  %7 = getelementptr inbounds nuw %"class.std::move_iterator.486", ptr %3, i32 0, i32 0
  store ptr %0, ptr %7, align 8
  %8 = getelementptr inbounds nuw %"class.std::move_iterator.486", ptr %4, i32 0, i32 0
  store ptr %1, ptr %8, align 8
  call void @llvm.memcpy.p0.p0.i64(ptr align 8 %5, ptr align 8 %3, i64 8, i1 false)
  call void @llvm.memcpy.p0.p0.i64(ptr align 8 %6, ptr align 8 %4, i64 8, i1 false)
  call void @_ZSt19__iterator_categoryISt13move_iteratorIPN12_GLOBAL__N_111DecompEntryEEENSt15iterator_traitsIT_E17iterator_categoryERKS6_(ptr noundef nonnull align 8 dereferenceable(8) %3)
  %9 = getelementptr inbounds nuw %"class.std::move_iterator.486", ptr %5, i32 0, i32 0
  %10 = load ptr, ptr %9, align 8
  %11 = getelementptr inbounds nuw %"class.std::move_iterator.486", ptr %6, i32 0, i32 0
  %12 = load ptr, ptr %11, align 8
  %13 = call noundef i64 @_ZSt10__distanceISt13move_iteratorIPN12_GLOBAL__N_111DecompEntryEEENSt15iterator_traitsIT_E15difference_typeES6_S6_St26random_access_iterator_tag(ptr %10, ptr %12)
  ret i64 %13
}

; Function Attrs: mustprogress nounwind uwtable
define internal void @_ZN4llvm25SmallVectorTemplateCommonIN12_GLOBAL__N_111DecompEntryEvE20assertSafeToAddRangeISt13move_iteratorIPS2_ETnNSt9enable_ifIXntsr3std7is_sameINSt12remove_constIT_E4typeES6_EE5valueEbE4typeELb0EEEvSA_SA_(ptr noundef nonnull align 8 dereferenceable(16) %0, ptr %1, ptr %2) #1 align 2 {
  %4 = alloca %"class.std::move_iterator.486", align 8
  %5 = alloca %"class.std::move_iterator.486", align 8
  %6 = alloca ptr, align 8
  %7 = getelementptr inbounds nuw %"class.std::move_iterator.486", ptr %4, i32 0, i32 0
  store ptr %1, ptr %7, align 8
  %8 = getelementptr inbounds nuw %"class.std::move_iterator.486", ptr %5, i32 0, i32 0
  store ptr %2, ptr %8, align 8
  store ptr %0, ptr %6, align 8
  ret void
}

; Function Attrs: mustprogress nounwind uwtable
define internal void @_ZN4llvm15SmallVectorImplIN12_GLOBAL__N_111DecompEntryEE6appendISt13move_iteratorIPS2_EvEEvT_S8_(ptr noundef nonnull align 8 dereferenceable(16) %0, ptr %1, ptr %2) #1 align 2 {
  %4 = alloca %"class.std::move_iterator.486", align 8
  %5 = alloca %"class.std::move_iterator.486", align 8
  %6 = alloca ptr, align 8
  %7 = alloca %"class.std::move_iterator.486", align 8
  %8 = alloca %"class.std::move_iterator.486", align 8
  %9 = alloca i64, align 8
  %10 = alloca %"class.std::move_iterator.486", align 8
  %11 = alloca %"class.std::move_iterator.486", align 8
  %12 = alloca %"class.std::move_iterator.486", align 8
  %13 = alloca %"class.std::move_iterator.486", align 8
  %14 = getelementptr inbounds nuw %"class.std::move_iterator.486", ptr %4, i32 0, i32 0
  store ptr %1, ptr %14, align 8
  %15 = getelementptr inbounds nuw %"class.std::move_iterator.486", ptr %5, i32 0, i32 0
  store ptr %2, ptr %15, align 8
  store ptr %0, ptr %6, align 8
  %16 = load ptr, ptr %6, align 8
  call void @llvm.memcpy.p0.p0.i64(ptr align 8 %7, ptr align 8 %4, i64 8, i1 false)
  call void @llvm.memcpy.p0.p0.i64(ptr align 8 %8, ptr align 8 %5, i64 8, i1 false)
  %17 = getelementptr inbounds nuw %"class.std::move_iterator.486", ptr %7, i32 0, i32 0
  %18 = load ptr, ptr %17, align 8
  %19 = getelementptr inbounds nuw %"class.std::move_iterator.486", ptr %8, i32 0, i32 0
  %20 = load ptr, ptr %19, align 8
  call void @_ZN4llvm25SmallVectorTemplateCommonIN12_GLOBAL__N_111DecompEntryEvE20assertSafeToAddRangeISt13move_iteratorIPS2_ETnNSt9enable_ifIXntsr3std7is_sameINSt12remove_constIT_E4typeES6_EE5valueEbE4typeELb0EEEvSA_SA_(ptr noundef nonnull align 8 dereferenceable(16) %16, ptr %18, ptr %20)
  call void @llvm.memcpy.p0.p0.i64(ptr align 8 %10, ptr align 8 %4, i64 8, i1 false)
  call void @llvm.memcpy.p0.p0.i64(ptr align 8 %11, ptr align 8 %5, i64 8, i1 false)
  %21 = getelementptr inbounds nuw %"class.std::move_iterator.486", ptr %10, i32 0, i32 0
  %22 = load ptr, ptr %21, align 8
  %23 = getelementptr inbounds nuw %"class.std::move_iterator.486", ptr %11, i32 0, i32 0
  %24 = load ptr, ptr %23, align 8
  %25 = call noundef i64 @_ZSt8distanceISt13move_iteratorIPN12_GLOBAL__N_111DecompEntryEEENSt15iterator_traitsIT_E15difference_typeES6_S6_(ptr %22, ptr %24)
  store i64 %25, ptr %9, align 8
  %26 = call noundef i64 @_ZNK4llvm15SmallVectorBaseIjE4sizeEv(ptr noundef nonnull align 8 dereferenceable(16) %16)
  %27 = load i64, ptr %9, align 8
  %28 = add i64 %26, %27
  call void @_ZN4llvm15SmallVectorImplIN12_GLOBAL__N_111DecompEntryEE7reserveEm(ptr noundef nonnull align 8 dereferenceable(16) %16, i64 noundef %28)
  call void @llvm.memcpy.p0.p0.i64(ptr align 8 %12, ptr align 8 %4, i64 8, i1 false)
  call void @llvm.memcpy.p0.p0.i64(ptr align 8 %13, ptr align 8 %5, i64 8, i1 false)
  %29 = call noundef ptr @_ZN4llvm25SmallVectorTemplateCommonIN12_GLOBAL__N_111DecompEntryEvE3endEv(ptr noundef nonnull align 8 dereferenceable(16) %16)
  %30 = getelementptr inbounds nuw %"class.std::move_iterator.486", ptr %12, i32 0, i32 0
  %31 = load ptr, ptr %30, align 8
  %32 = getelementptr inbounds nuw %"class.std::move_iterator.486", ptr %13, i32 0, i32 0
  %33 = load ptr, ptr %32, align 8
  call void @_ZN4llvm23SmallVectorTemplateBaseIN12_GLOBAL__N_111DecompEntryELb1EE18uninitialized_copyISt13move_iteratorIPS2_ES6_EEvT_S8_T0_(ptr %31, ptr %33, ptr noundef %29)
  %34 = call noundef i64 @_ZNK4llvm15SmallVectorBaseIjE4sizeEv(ptr noundef nonnull align 8 dereferenceable(16) %16)
  %35 = load i64, ptr %9, align 8
  %36 = add i64 %34, %35
  call void @_ZN4llvm15SmallVectorBaseIjE8set_sizeEm(ptr noundef nonnull align 8 dereferenceable(16) %16, i64 noundef %36)
  ret void
}