; Function Attrs: mustprogress nounwind uwtable
define internal fastcc void @_ZN4llvm15SmallVectorImplIN12_GLOBAL__N_111DecompEntryEE6appendISt13move_iteratorIPS2_EvEEvT_S8_(ptr noundef nonnull align 8 dereferenceable(16) %0, ptr %1, ptr %2) unnamed_addr #0 align 2 {
  %4 = ptrtoint ptr %2 to i64
  %5 = ptrtoint ptr %1 to i64
  %6 = sub i64 %4, %5
  %7 = sdiv exact i64 %6, 24
  %8 = tail call noundef i64 @_ZNK4llvm15SmallVectorBaseIjE4sizeEv(ptr noundef nonnull align 8 dereferenceable(16) %0) #21
  %9 = add i64 %8, %7
  %10 = tail call noundef i64 @_ZNK4llvm15SmallVectorBaseIjE8capacityEv(ptr noundef nonnull align 8 dereferenceable(16) %0) #21
  %11 = icmp ult i64 %10, %9
  br i1 %11, label %12, label %_ZN4llvm15SmallVectorImplIN12_GLOBAL__N_111DecompEntryEE7reserveEm.exit

12:                                               ; preds = %3
  %13 = getelementptr inbounds i8, ptr %0, i64 16
  tail call void @_ZN4llvm15SmallVectorBaseIjE8grow_podEPvmm(ptr noundef nonnull align 8 dereferenceable(16) %0, ptr noundef nonnull %13, i64 noundef %9, i64 noundef 24) #21
  br label %_ZN4llvm15SmallVectorImplIN12_GLOBAL__N_111DecompEntryEE7reserveEm.exit

_ZN4llvm15SmallVectorImplIN12_GLOBAL__N_111DecompEntryEE7reserveEm.exit: ; preds = %3, %12
  %.val.i = load ptr, ptr %0, align 8
  %14 = tail call noundef i64 @_ZNK4llvm15SmallVectorBaseIjE4sizeEv(ptr noundef nonnull align 8 dereferenceable(16) %0) #21
  %.not7.i.i.i.i = icmp eq ptr %1, %2
  br i1 %.not7.i.i.i.i, label %_ZN4llvm23SmallVectorTemplateBaseIN12_GLOBAL__N_111DecompEntryELb1EE18uninitialized_copyISt13move_iteratorIPS2_ES6_EEvT_S8_T0_.exit, label %.lr.ph.i.i.i.i.preheader

.lr.ph.i.i.i.i.preheader:                         ; preds = %_ZN4llvm15SmallVectorImplIN12_GLOBAL__N_111DecompEntryEE7reserveEm.exit
  %15 = getelementptr %"struct.(anonymous namespace)::DecompEntry", ptr %.val.i, i64 %14
  br label %.lr.ph.i.i.i.i

.lr.ph.i.i.i.i:                                   ; preds = %.lr.ph.i.i.i.i.preheader, %.lr.ph.i.i.i.i
  %.09.i.i.i.i = phi ptr [ %17, %.lr.ph.i.i.i.i ], [ %15, %.lr.ph.i.i.i.i.preheader ]
  %.sroa.06.08.i.i.i.i = phi ptr [ %16, %.lr.ph.i.i.i.i ], [ %1, %.lr.ph.i.i.i.i.preheader ]
  tail call void @llvm.memcpy.p0.p0.i64(ptr noundef nonnull align 8 dereferenceable(24) %.09.i.i.i.i, ptr noundef nonnull readonly align 8 dereferenceable(24) %.sroa.06.08.i.i.i.i, i64 24, i1 false)
  %16 = getelementptr inbounds i8, ptr %.sroa.06.08.i.i.i.i, i64 24
  %17 = getelementptr inbounds i8, ptr %.09.i.i.i.i, i64 24
  %.not.i.i.i.i = icmp eq ptr %16, %2
  br i1 %.not.i.i.i.i, label %_ZN4llvm23SmallVectorTemplateBaseIN12_GLOBAL__N_111DecompEntryELb1EE18uninitialized_copyISt13move_iteratorIPS2_ES6_EEvT_S8_T0_.exit, label %.lr.ph.i.i.i.i, !llvm.loop !194

_ZN4llvm23SmallVectorTemplateBaseIN12_GLOBAL__N_111DecompEntryELb1EE18uninitialized_copyISt13move_iteratorIPS2_ES6_EEvT_S8_T0_.exit: ; preds = %.lr.ph.i.i.i.i, %_ZN4llvm15SmallVectorImplIN12_GLOBAL__N_111DecompEntryEE7reserveEm.exit
  %18 = tail call noundef i64 @_ZNK4llvm15SmallVectorBaseIjE4sizeEv(ptr noundef nonnull align 8 dereferenceable(16) %0) #21
  %19 = add i64 %18, %7
  tail call void @_ZN4llvm15SmallVectorBaseIjE8set_sizeEm(ptr noundef nonnull align 8 dereferenceable(16) %0, i64 noundef %19) #21
  ret void
}